target datalayout = "e-m:e-p270:32:32-p271:32:32-p272:64:64-i64:64-i128:128-f80:128-n8:16:32:64-S128"
target triple = "x86_64-pc-linux-gnu"

%struct.NarrowPtrStruct = type { ptr, i32, i8 }
%class.ReferenceProcessor = type { %class.ReferenceDiscoverer, ptr, i8, i8, i8, i32, ptr, ptr, i32, i32, ptr, ptr, ptr, ptr, ptr }
%class.ReferenceDiscoverer = type { ptr }
%class.DiscoveredList = type { ptr, i32, i64 }

@_ZN18ReferenceProcessor29_always_clear_soft_ref_policyE = hidden global ptr null, align 8
@_ZN18ReferenceProcessor24_default_soft_ref_policyE = hidden global ptr null, align 8
@_ZTV18ReferenceProcessor = hidden unnamed_addr constant { [3 x ptr] } { [3 x ptr] [ptr null, ptr null, ptr @_ZN18ReferenceProcessor18discover_referenceEP7oopDesc13ReferenceType] }, align 8
@UseCompressedOops = external global i8, align 1
@_ZTV19ReferenceDiscoverer = linkonce_odr hidden unnamed_addr constant { [3 x ptr] } { [3 x ptr] [ptr null, ptr null, ptr @__cxa_pure_virtual] }, comdat, align 8
@_ZN14CompressedOops11_narrow_oopE = external global %struct.NarrowPtrStruct, align 8

; Function Attrs: mustprogress nounwind uwtable
define linkonce_odr hidden noundef i32 @_ZN14CompressedOops15narrow_oop_castImEE9narrowOopT_(i64 noundef %0) #1 comdat align 2 {
  %2 = alloca i64, align 8
  %3 = alloca i32, align 4
  store i64 %0, ptr %2, align 8
  %4 = load i64, ptr %2, align 8
  %5 = trunc i64 %4 to i32
  store i32 %5, ptr %3, align 4
  %6 = load i32, ptr %3, align 4
  ret i32 %6
}

; Function Attrs: mustprogress nounwind uwtable
define linkonce_odr hidden noundef i32 @_ZN14CompressedOops5shiftEv() #1 comdat align 2 {
  %1 = load i32, ptr getelementptr inbounds (%struct.NarrowPtrStruct, ptr @_ZN14CompressedOops11_narrow_oopE, i32 0, i32 1), align 8
  ret i32 %1
}

; Function Attrs: mustprogress nounwind uwtable
define linkonce_odr hidden noundef i64 @_Z13pointer_deltaPVKvS0_m(ptr noundef %0, ptr noundef %1, i64 noundef %2) #1 comdat {
  %4 = alloca ptr, align 8
  %5 = alloca ptr, align 8
  %6 = alloca i64, align 8
  store ptr %0, ptr %4, align 8
  store ptr %1, ptr %5, align 8
  store i64 %2, ptr %6, align 8
  %7 = load ptr, ptr %4, align 8
  %8 = ptrtoint ptr %7 to i64
  %9 = load ptr, ptr %5, align 8
  %10 = ptrtoint ptr %9 to i64
  %11 = sub i64 %8, %10
  %12 = load i64, ptr %6, align 8
  %13 = udiv i64 %11, %12
  ret i64 %13
}

; Function Attrs: mustprogress nounwind uwtable
define linkonce_odr hidden noundef ptr @_ZN14CompressedOops4baseEv() #1 comdat align 2 {
  %1 = load ptr, ptr @_ZN14CompressedOops11_narrow_oopE, align 8
  ret ptr %1
}

; Function Attrs: mustprogress nounwind uwtable
define linkonce_odr hidden noundef i32 @_ZN14CompressedOops15encode_not_nullEP7oopDesc(ptr noundef %0) #1 comdat align 2 {
  %2 = alloca ptr, align 8
  %3 = alloca i64, align 8
  %4 = alloca i32, align 4
  store ptr %0, ptr %2, align 8
  %5 = load ptr, ptr %2, align 8
  %6 = call noundef ptr @_ZN14CompressedOops4baseEv()
  %7 = call noundef i64 @_Z13pointer_deltaPVKvS0_m(ptr noundef %5, ptr noundef %6, i64 noundef 1)
  store i64 %7, ptr %3, align 8
  %8 = load i64, ptr %3, align 8
  %9 = call noundef i32 @_ZN14CompressedOops5shiftEv()
  %10 = zext i32 %9 to i64
  %11 = lshr i64 %8, %10
  %12 = call noundef i32 @_ZN14CompressedOops15narrow_oop_castImEE9narrowOopT_(i64 noundef %11)
  store i32 %12, ptr %4, align 4
  %13 = load i32, ptr %4, align 4
  ret i32 %13
}

; Function Attrs: mustprogress nounwind uwtable
define linkonce_odr hidden noundef zeroext i1 @_ZN14CompressedOops7is_nullEP7oopDesc(ptr noundef %0) #1 comdat align 2 {
  %2 = alloca ptr, align 8
  store ptr %0, ptr %2, align 8
  %3 = load ptr, ptr %2, align 8
  %4 = icmp eq ptr %3, null
  ret i1 %4
}

; Function Attrs: mustprogress nounwind uwtable
define linkonce_odr hidden noundef i32 @_ZN14CompressedOops6encodeEP7oopDesc(ptr noundef %0) #1 comdat align 2 {
  %2 = alloca ptr, align 8
  store ptr %0, ptr %2, align 8
  %3 = load ptr, ptr %2, align 8
  %4 = call noundef zeroext i1 @_ZN14CompressedOops7is_nullEP7oopDesc(ptr noundef %3)
  br i1 %4, label %5, label %6

5:                                                ; preds = %1
  br label %9

6:                                                ; preds = %1
  %7 = load ptr, ptr %2, align 8
  %8 = call noundef i32 @_ZN14CompressedOops15encode_not_nullEP7oopDesc(ptr noundef %7)
  br label %9

9:                                                ; preds = %6, %5
  %10 = phi i32 [ 0, %5 ], [ %8, %6 ]
  ret i32 %10
}

; Function Attrs: mustprogress nounwind uwtable
define linkonce_odr hidden void @_ZN14DiscoveredList10set_lengthEm(ptr noundef nonnull align 8 dereferenceable(24) %0, i64 noundef %1) #1 comdat align 2 {
  %3 = alloca ptr, align 8
  %4 = alloca i64, align 8
  store ptr %0, ptr %3, align 8
  store i64 %1, ptr %4, align 8
  %5 = load ptr, ptr %3, align 8
  %6 = load i64, ptr %4, align 8
  %7 = getelementptr inbounds %class.DiscoveredList, ptr %5, i32 0, i32 2
  store i64 %6, ptr %7, align 8
  ret void
}

; Function Attrs: mustprogress nounwind uwtable
define linkonce_odr hidden void @_ZN14DiscoveredList8set_headEP7oopDesc(ptr noundef nonnull align 8 dereferenceable(24) %0, ptr noundef %1) #1 comdat align 2 {
  %3 = alloca ptr, align 8
  %4 = alloca ptr, align 8
  store ptr %0, ptr %3, align 8
  store ptr %1, ptr %4, align 8
  %5 = load ptr, ptr %3, align 8
  %6 = load i8, ptr @UseCompressedOops, align 1
  %7 = trunc i8 %6 to i1
  br i1 %7, label %8, label %12

8:                                                ; preds = %2
  %9 = load ptr, ptr %4, align 8
  %10 = call noundef i32 @_ZN14CompressedOops6encodeEP7oopDesc(ptr noundef %9)
  %11 = getelementptr inbounds %class.DiscoveredList, ptr %5, i32 0, i32 1
  store i32 %10, ptr %11, align 8
  br label %15

12:                                               ; preds = %2
  %13 = load ptr, ptr %4, align 8
  %14 = getelementptr inbounds %class.DiscoveredList, ptr %5, i32 0, i32 0
  store ptr %13, ptr %14, align 8
  br label %15

15:                                               ; preds = %12, %8
  ret void
}

; Function Attrs: mustprogress nounwind uwtable
define linkonce_odr hidden void @_ZN18ReferenceProcessor12setup_policyEb(ptr noundef nonnull align 8 dereferenceable(88) %0, i1 noundef zeroext %1) #1 comdat align 2 {
  %3 = alloca ptr, align 8
  %4 = alloca i8, align 1
  store ptr %0, ptr %3, align 8
  %5 = zext i1 %1 to i8
  store i8 %5, ptr %4, align 1
  %6 = load ptr, ptr %3, align 8
  %7 = load i8, ptr %4, align 1
  %8 = trunc i8 %7 to i1
  br i1 %8, label %9, label %11

9:                                                ; preds = %2
  %10 = load ptr, ptr @_ZN18ReferenceProcessor29_always_clear_soft_ref_policyE, align 8
  br label %13

11:                                               ; preds = %2
  %12 = load ptr, ptr @_ZN18ReferenceProcessor24_default_soft_ref_policyE, align 8
  br label %13

13:                                               ; preds = %11, %9
  %14 = phi ptr [ %10, %9 ], [ %12, %11 ]
  %15 = getelementptr inbounds %class.ReferenceProcessor, ptr %6, i32 0, i32 7
  store ptr %14, ptr %15, align 8
  %16 = getelementptr inbounds %class.ReferenceProcessor, ptr %6, i32 0, i32 7
  %17 = load ptr, ptr %16, align 8
  %18 = load ptr, ptr %17, align 8
  %19 = getelementptr inbounds ptr, ptr %18, i64 1
  %20 = load ptr, ptr %19, align 8
  call void %20(ptr noundef nonnull align 8 dereferenceable(8) %17)
  ret void
}

; Function Attrs: mustprogress nounwind uwtable
define linkonce_odr hidden void @_ZN14DiscoveredList5clearEv(ptr noundef nonnull align 8 dereferenceable(24) %0) #1 comdat align 2 {
  %2 = alloca ptr, align 8
  store ptr %0, ptr %2, align 8
  %3 = load ptr, ptr %2, align 8
  call void @_ZN14DiscoveredList8set_headEP7oopDesc(ptr noundef nonnull align 8 dereferenceable(24) %3, ptr noundef null)
  call void @_ZN14DiscoveredList10set_lengthEm(ptr noundef nonnull align 8 dereferenceable(24) %3, i64 noundef 0)
  ret void
}

; Function Attrs: mustprogress nounwind uwtable
define linkonce_odr hidden noundef i32 @_ZN18ReferenceProcessor27number_of_subclasses_of_refEv() #1 comdat align 2 {
  ret i32 4
}

; Function Attrs: mustprogress nounwind uwtable
define linkonce_odr hidden noundef i32 @_Z4MAX2IjET_S0_S0_(i32 noundef %0, i32 noundef %1) #1 comdat {
  %3 = alloca i32, align 4
  %4 = alloca i32, align 4
  store i32 %0, ptr %3, align 4
  store i32 %1, ptr %4, align 4
  %5 = load i32, ptr %3, align 4
  %6 = load i32, ptr %4, align 4
  %7 = icmp ugt i32 %5, %6
  br i1 %7, label %8, label %10

8:                                                ; preds = %2
  %9 = load i32, ptr %3, align 4
  br label %12

10:                                               ; preds = %2
  %11 = load i32, ptr %4, align 4
  br label %12

12:                                               ; preds = %10, %8
  %13 = phi i32 [ %9, %8 ], [ %11, %10 ]
  ret i32 %13
}

; Function Attrs: mustprogress nounwind uwtable
define linkonce_odr hidden void @_ZN19ReferenceDiscovererC2Ev(ptr noundef nonnull align 8 dereferenceable(8) %0) unnamed_addr #1 comdat align 2 {
  %2 = alloca ptr, align 8
  store ptr %0, ptr %2, align 8
  %3 = load ptr, ptr %2, align 8
  store ptr getelementptr inbounds inrange(-16, 8) ({ [3 x ptr] }, ptr @_ZTV19ReferenceDiscoverer, i32 0, i32 0, i32 2), ptr %3, align 8
  ret void
}

; Function Attrs: mustprogress nounwind uwtable
define hidden void @_ZN18ReferenceProcessorC2EP17BoolObjectClosurejjbS1_(ptr noundef nonnull align 8 dereferenceable(88) %0, ptr noundef %1, i32 noundef %2, i32 noundef %3, i1 noundef zeroext %4, ptr noundef %5) unnamed_addr #1 align 2 {
  %7 = alloca ptr, align 8
  %8 = alloca ptr, align 8
  %9 = alloca i32, align 4
  %10 = alloca i32, align 4
  %11 = alloca i8, align 1
  %12 = alloca ptr, align 8
  %13 = alloca i32, align 4
  store ptr %0, ptr %7, align 8
  store ptr %1, ptr %8, align 8
  store i32 %2, ptr %9, align 4
  store i32 %3, ptr %10, align 4
  %14 = zext i1 %4 to i8
  store i8 %14, ptr %11, align 1
  store ptr %5, ptr %12, align 8
  %15 = load ptr, ptr %7, align 8
  call void @_ZN19ReferenceDiscovererC2Ev(ptr noundef nonnull align 8 dereferenceable(8) %15) #10
  store ptr getelementptr inbounds inrange(-16, 8) ({ [3 x ptr] }, ptr @_ZTV18ReferenceProcessor, i32 0, i32 0, i32 2), ptr %15, align 8
  %16 = getelementptr inbounds %class.ReferenceProcessor, ptr %15, i32 0, i32 1
  %17 = load ptr, ptr %8, align 8
  store ptr %17, ptr %16, align 8
  %18 = getelementptr inbounds %class.ReferenceProcessor, ptr %15, i32 0, i32 2
  store i8 0, ptr %18, align 8
  %19 = getelementptr inbounds %class.ReferenceProcessor, ptr %15, i32 0, i32 5
  store i32 0, ptr %19, align 4
  %20 = getelementptr inbounds %class.ReferenceProcessor, ptr %15, i32 0, i32 6
  %21 = load ptr, ptr %12, align 8
  store ptr %21, ptr %20, align 8
  %22 = load i8, ptr %11, align 1
  %23 = trunc i8 %22 to i1
  %24 = getelementptr inbounds %class.ReferenceProcessor, ptr %15, i32 0, i32 3
  %25 = zext i1 %23 to i8
  store i8 %25, ptr %24, align 1
  %26 = load i32, ptr %10, align 4
  %27 = icmp ugt i32 %26, 1
  %28 = getelementptr inbounds %class.ReferenceProcessor, ptr %15, i32 0, i32 4
  %29 = zext i1 %27 to i8
  store i8 %29, ptr %28, align 2
  %30 = load i32, ptr %9, align 4
  %31 = call noundef i32 @_Z4MAX2IjET_S0_S0_(i32 noundef 1, i32 noundef %30)
  %32 = getelementptr inbounds %class.ReferenceProcessor, ptr %15, i32 0, i32 8
  store i32 %31, ptr %32, align 8
  %33 = getelementptr inbounds %class.ReferenceProcessor, ptr %15, i32 0, i32 8
  %34 = load i32, ptr %33, align 8
  %35 = load i32, ptr %10, align 4
  %36 = call noundef i32 @_Z4MAX2IjET_S0_S0_(i32 noundef %34, i32 noundef %35)
  %37 = getelementptr inbounds %class.ReferenceProcessor, ptr %15, i32 0, i32 9
  store i32 %36, ptr %37, align 4
  %38 = getelementptr inbounds %class.ReferenceProcessor, ptr %15, i32 0, i32 9
  %39 = load i32, ptr %38, align 4
  %40 = call noundef i32 @_ZN18ReferenceProcessor27number_of_subclasses_of_refEv()
  %41 = mul i32 %39, %40
  %42 = zext i32 %41 to i64
  %43 = mul i64 %42, 24
  %44 = call noundef ptr @_Z12AllocateHeapm8MEMFLAGSN17AllocFailStrategy13AllocFailEnumE(i64 noundef %43, i8 noundef zeroext 5, i32 noundef 0)
  %45 = getelementptr inbounds %class.ReferenceProcessor, ptr %15, i32 0, i32 10
  store ptr %44, ptr %45, align 8
  %46 = getelementptr inbounds %class.ReferenceProcessor, ptr %15, i32 0, i32 10
  %47 = load ptr, ptr %46, align 8
  %48 = getelementptr inbounds %class.DiscoveredList, ptr %47, i64 0
  %49 = getelementptr inbounds %class.ReferenceProcessor, ptr %15, i32 0, i32 11
  store ptr %48, ptr %49, align 8
  %50 = getelementptr inbounds %class.ReferenceProcessor, ptr %15, i32 0, i32 11
  %51 = load ptr, ptr %50, align 8
  %52 = getelementptr inbounds %class.ReferenceProcessor, ptr %15, i32 0, i32 9
  %53 = load i32, ptr %52, align 4
  %54 = zext i32 %53 to i64
  %55 = getelementptr inbounds %class.DiscoveredList, ptr %51, i64 %54
  %56 = getelementptr inbounds %class.ReferenceProcessor, ptr %15, i32 0, i32 12
  store ptr %55, ptr %56, align 8
  %57 = getelementptr inbounds %class.ReferenceProcessor, ptr %15, i32 0, i32 12
  %58 = load ptr, ptr %57, align 8
  %59 = getelementptr inbounds %class.ReferenceProcessor, ptr %15, i32 0, i32 9
  %60 = load i32, ptr %59, align 4
  %61 = zext i32 %60 to i64
  %62 = getelementptr inbounds %class.DiscoveredList, ptr %58, i64 %61
  %63 = getelementptr inbounds %class.ReferenceProcessor, ptr %15, i32 0, i32 13
  store ptr %62, ptr %63, align 8
  %64 = getelementptr inbounds %class.ReferenceProcessor, ptr %15, i32 0, i32 13
  %65 = load ptr, ptr %64, align 8
  %66 = getelementptr inbounds %class.ReferenceProcessor, ptr %15, i32 0, i32 9
  %67 = load i32, ptr %66, align 4
  %68 = zext i32 %67 to i64
  %69 = getelementptr inbounds %class.DiscoveredList, ptr %65, i64 %68
  %70 = getelementptr inbounds %class.ReferenceProcessor, ptr %15, i32 0, i32 14
  store ptr %69, ptr %70, align 8
  store i32 0, ptr %13, align 4
  br label %71

71:                                               ; preds = %84, %6
  %72 = load i32, ptr %13, align 4
  %73 = getelementptr inbounds %class.ReferenceProcessor, ptr %15, i32 0, i32 9
  %74 = load i32, ptr %73, align 4
  %75 = call noundef i32 @_ZN18ReferenceProcessor27number_of_subclasses_of_refEv()
  %76 = mul i32 %74, %75
  %77 = icmp ult i32 %72, %76
  br i1 %77, label %78, label %87

78:                                               ; preds = %71
  %79 = getelementptr inbounds %class.ReferenceProcessor, ptr %15, i32 0, i32 10
  %80 = load ptr, ptr %79, align 8
  %81 = load i32, ptr %13, align 4
  %82 = zext i32 %81 to i64
  %83 = getelementptr inbounds %class.DiscoveredList, ptr %80, i64 %82
  call void @_ZN14DiscoveredList5clearEv(ptr noundef nonnull align 8 dereferenceable(24) %83)
  br label %84

84:                                               ; preds = %78
  %85 = load i32, ptr %13, align 4
  %86 = add i32 %85, 1
  store i32 %86, ptr %13, align 4
  br label %71, !llvm.loop !6

87:                                               ; preds = %71
  call void @_ZN18ReferenceProcessor12setup_policyEb(ptr noundef nonnull align 8 dereferenceable(88) %15, i1 noundef zeroext false)
  ret void
}