; Function Attrs: mustprogress nounwind uwtable
define hidden void @_ZN18ReferenceProcessorC2EP17BoolObjectClosurejjbS1_(ptr nocapture noundef nonnull align 8 dereferenceable(88) %0, ptr noundef %1, i32 noundef %2, i32 noundef %3, i1 noundef zeroext %4, ptr noundef %5) unnamed_addr #0 align 2 {
  %7 = zext i1 %4 to i8
  store ptr getelementptr inbounds inrange(-16, 8) (i8, ptr @_ZTV18ReferenceProcessor, i64 16), ptr %0, align 8
  %8 = getelementptr inbounds i8, ptr %0, i64 8
  store ptr %1, ptr %8, align 8
  %9 = getelementptr inbounds i8, ptr %0, i64 16
  store i8 0, ptr %9, align 8
  %10 = getelementptr inbounds i8, ptr %0, i64 20
  store i32 0, ptr %10, align 4
  %11 = getelementptr inbounds i8, ptr %0, i64 24
  store ptr %5, ptr %11, align 8
  %12 = getelementptr inbounds i8, ptr %0, i64 17
  store i8 %7, ptr %12, align 1
  %13 = icmp ugt i32 %3, 1
  %14 = getelementptr inbounds i8, ptr %0, i64 18
  %15 = zext i1 %13 to i8
  store i8 %15, ptr %14, align 2
  %16 = tail call noundef i32 @llvm.umax.i32(i32 %2, i32 1)
  %17 = getelementptr inbounds i8, ptr %0, i64 40
  store i32 %16, ptr %17, align 8
  %18 = tail call noundef i32 @llvm.umax.i32(i32 %16, i32 %3)
  %19 = getelementptr inbounds i8, ptr %0, i64 44
  store i32 %18, ptr %19, align 4
  %20 = shl i32 %18, 2
  %21 = zext i32 %20 to i64
  %22 = mul nuw nsw i64 %21, 24
  %23 = tail call noundef ptr @_Z12AllocateHeapm8MEMFLAGSN17AllocFailStrategy13AllocFailEnumE(i64 noundef %22, i8 noundef zeroext 5, i32 noundef 0) #17
  %24 = getelementptr inbounds i8, ptr %0, i64 48
  store ptr %23, ptr %24, align 8
  %25 = getelementptr inbounds i8, ptr %0, i64 56
  store ptr %23, ptr %25, align 8
  %26 = load i32, ptr %19, align 4
  %27 = zext i32 %26 to i64
  %28 = getelementptr inbounds %class.DiscoveredList, ptr %23, i64 %27
  %29 = getelementptr inbounds i8, ptr %0, i64 64
  store ptr %28, ptr %29, align 8
  %30 = getelementptr inbounds %class.DiscoveredList, ptr %28, i64 %27
  %31 = getelementptr inbounds i8, ptr %0, i64 72
  store ptr %30, ptr %31, align 8
  %32 = getelementptr inbounds %class.DiscoveredList, ptr %30, i64 %27
  %33 = getelementptr inbounds i8, ptr %0, i64 80
  store ptr %32, ptr %33, align 8
  %.mask = and i32 %26, 1073741823
  %.not = icmp eq i32 %.mask, 0
  br i1 %.not, label %._crit_edge, label %.lr.ph

.lr.ph:                                           ; preds = %6, %_ZN14DiscoveredList5clearEv.exit
  %indvars.iv = phi i64 [ %indvars.iv.next, %_ZN14DiscoveredList5clearEv.exit ], [ 0, %6 ]
  %34 = load ptr, ptr %24, align 8
  %35 = getelementptr inbounds %class.DiscoveredList, ptr %34, i64 %indvars.iv
  %36 = load i8, ptr @UseCompressedOops, align 1
  %37 = trunc i8 %36 to i1
  br i1 %37, label %38, label %40

38:                                               ; preds = %.lr.ph
  %39 = getelementptr inbounds i8, ptr %35, i64 8
  store i32 0, ptr %39, align 8
  br label %_ZN14DiscoveredList5clearEv.exit

40:                                               ; preds = %.lr.ph
  store ptr null, ptr %35, align 8
  br label %_ZN14DiscoveredList5clearEv.exit

_ZN14DiscoveredList5clearEv.exit:                 ; preds = %38, %40
  %41 = getelementptr inbounds i8, ptr %35, i64 16
  store i64 0, ptr %41, align 8
  %indvars.iv.next = add nuw nsw i64 %indvars.iv, 1
  %42 = load i32, ptr %19, align 4
  %43 = shl i32 %42, 2
  %44 = zext i32 %43 to i64
  %45 = icmp ult i64 %indvars.iv.next, %44
  br i1 %45, label %.lr.ph, label %._crit_edge, !llvm.loop !6

._crit_edge:                                      ; preds = %_ZN14DiscoveredList5clearEv.exit, %6
  %46 = load ptr, ptr @_ZN18ReferenceProcessor24_default_soft_ref_policyE, align 8
  %47 = getelementptr inbounds i8, ptr %0, i64 32
  store ptr %46, ptr %47, align 8
  %48 = load ptr, ptr %46, align 8
  %49 = getelementptr inbounds i8, ptr %48, i64 8
  %50 = load ptr, ptr %49, align 8
  tail call void %50(ptr noundef nonnull align 8 dereferenceable(8) %46) #17
  ret void
}